target datalayout = "e-m:e-p270:32:32-p271:32:32-p272:64:64-i64:64-i128:128-f80:128-n8:16:32:64-S128"
target triple = "x86_64-pc-linux-gnu"

%struct.repository = type { ptr, ptr, ptr, ptr, ptr, %struct.strmap, %struct.strmap, %struct.repo_path_cache, ptr, ptr, ptr, ptr, %struct.repo_settings, ptr, ptr, ptr, ptr, ptr, ptr, i32, i32, i32, ptr, ptr, i32, i32, i8 }
%struct.strmap = type { %struct.hashmap, ptr, i8 }
%struct.hashmap = type { ptr, ptr, ptr, i32, i32, i32, i32, i8 }
%struct.repo_path_cache = type { ptr, ptr, ptr, ptr, ptr, ptr, ptr }
%struct.repo_settings = type { i32, i32, i32, i32, i32, i32, i32, i32, i32, i32, i32, i32, ptr, i32, i32, i32, i32, i32, i32, i32, i64, i64, i64 }
%struct.parsed_object_pool = type { ptr, ptr, i32, i32, ptr, ptr, ptr, ptr, ptr, ptr, i32, i32, i32, ptr, ptr, i32, i32, ptr }

@the_repository = external global ptr, align 8
@.str.19 = private unnamed_addr constant [27 x i8] c"size_t overflow: %lu * %lu\00", align 1

; Function Attrs: inlinehint nounwind uwtable
define internal i64 @st_mult(i64 noundef %0, i64 noundef %1) #3 {
  %3 = alloca i64, align 8
  %4 = alloca i64, align 8
  store i64 %0, ptr %3, align 8, !tbaa !56
  store i64 %1, ptr %4, align 8, !tbaa !56
  %5 = load i64, ptr %3, align 8, !tbaa !56
  %6 = icmp ne i64 %5, 0
  br i1 %6, label %7, label %15

7:                                                ; preds = %2
  %8 = load i64, ptr %4, align 8, !tbaa !56
  %9 = load i64, ptr %3, align 8, !tbaa !56
  %10 = udiv i64 -1, %9
  %11 = icmp ugt i64 %8, %10
  br i1 %11, label %12, label %15

12:                                               ; preds = %7
  %13 = load i64, ptr %3, align 8, !tbaa !56
  %14 = load i64, ptr %4, align 8, !tbaa !56
  call void (ptr, ...) @die(ptr noundef @.str.19, i64 noundef %13, i64 noundef %14) #11
  unreachable

15:                                               ; preds = %7, %2
  %16 = load i64, ptr %3, align 8, !tbaa !56
  %17 = load i64, ptr %4, align 8, !tbaa !56
  %18 = mul i64 %16, %17
  ret i64 %18
}

; Function Attrs: inlinehint nounwind uwtable
define internal void @move_array(ptr noundef %0, ptr noundef %1, i64 noundef %2, i64 noundef %3) #3 {
  %5 = alloca ptr, align 8
  %6 = alloca ptr, align 8
  %7 = alloca i64, align 8
  %8 = alloca i64, align 8
  store ptr %0, ptr %5, align 8, !tbaa !55
  store ptr %1, ptr %6, align 8, !tbaa !55
  store i64 %2, ptr %7, align 8, !tbaa !56
  store i64 %3, ptr %8, align 8, !tbaa !56
  %9 = load i64, ptr %7, align 8, !tbaa !56
  %10 = icmp ne i64 %9, 0
  br i1 %10, label %11, label %17

11:                                               ; preds = %4
  %12 = load ptr, ptr %5, align 8, !tbaa !55
  %13 = load ptr, ptr %6, align 8, !tbaa !55
  %14 = load i64, ptr %8, align 8, !tbaa !56
  %15 = load i64, ptr %7, align 8, !tbaa !56
  %16 = call i64 @st_mult(i64 noundef %14, i64 noundef %15)
  call void @llvm.memmove.p0.p0.i64(ptr align 1 %12, ptr align 1 %13, i64 %16, i1 false)
  br label %17

17:                                               ; preds = %11, %4
  ret void
}

; Function Attrs: nounwind uwtable
define dso_local i32 @unregister_shallow(ptr noundef %0) #0 {
  %2 = alloca i32, align 4
  %3 = alloca ptr, align 8
  %4 = alloca i32, align 4
  %5 = alloca i32, align 4
  store ptr %0, ptr %3, align 8, !tbaa !40
  call void @llvm.lifetime.start.p0(i64 4, ptr %4) #12
  %6 = load ptr, ptr @the_repository, align 8, !tbaa !4
  %7 = load ptr, ptr %3, align 8, !tbaa !40
  %8 = call i32 @commit_graft_pos(ptr noundef %6, ptr noundef %7)
  store i32 %8, ptr %4, align 4, !tbaa !11
  %9 = load i32, ptr %4, align 4, !tbaa !11
  %10 = icmp slt i32 %9, 0
  br i1 %10, label %11, label %12

11:                                               ; preds = %1
  store i32 -1, ptr %2, align 4
  store i32 1, ptr %5, align 4
  br label %64

12:                                               ; preds = %1
  %13 = load ptr, ptr @the_repository, align 8, !tbaa !4
  %14 = getelementptr inbounds nuw %struct.repository, ptr %13, i32 0, i32 3
  %15 = load ptr, ptr %14, align 8, !tbaa !13
  %16 = getelementptr inbounds nuw %struct.parsed_object_pool, ptr %15, i32 0, i32 9
  %17 = load ptr, ptr %16, align 8, !tbaa !53
  %18 = load i32, ptr %4, align 4, !tbaa !11
  %19 = sext i32 %18 to i64
  %20 = getelementptr inbounds ptr, ptr %17, i64 %19
  %21 = load ptr, ptr %20, align 8, !tbaa !42
  call void @free(ptr noundef %21) #12
  %22 = load i32, ptr %4, align 4, !tbaa !11
  %23 = add nsw i32 %22, 1
  %24 = load ptr, ptr @the_repository, align 8, !tbaa !4
  %25 = getelementptr inbounds nuw %struct.repository, ptr %24, i32 0, i32 3
  %26 = load ptr, ptr %25, align 8, !tbaa !13
  %27 = getelementptr inbounds nuw %struct.parsed_object_pool, ptr %26, i32 0, i32 11
  %28 = load i32, ptr %27, align 4, !tbaa !54
  %29 = icmp slt i32 %23, %28
  br i1 %29, label %30, label %57

30:                                               ; preds = %12
  %31 = load ptr, ptr @the_repository, align 8, !tbaa !4
  %32 = getelementptr inbounds nuw %struct.repository, ptr %31, i32 0, i32 3
  %33 = load ptr, ptr %32, align 8, !tbaa !13
  %34 = getelementptr inbounds nuw %struct.parsed_object_pool, ptr %33, i32 0, i32 9
  %35 = load ptr, ptr %34, align 8, !tbaa !53
  %36 = load i32, ptr %4, align 4, !tbaa !11
  %37 = sext i32 %36 to i64
  %38 = getelementptr inbounds ptr, ptr %35, i64 %37
  %39 = load ptr, ptr @the_repository, align 8, !tbaa !4
  %40 = getelementptr inbounds nuw %struct.repository, ptr %39, i32 0, i32 3
  %41 = load ptr, ptr %40, align 8, !tbaa !13
  %42 = getelementptr inbounds nuw %struct.parsed_object_pool, ptr %41, i32 0, i32 9
  %43 = load ptr, ptr %42, align 8, !tbaa !53
  %44 = load i32, ptr %4, align 4, !tbaa !11
  %45 = sext i32 %44 to i64
  %46 = getelementptr inbounds ptr, ptr %43, i64 %45
  %47 = getelementptr inbounds ptr, ptr %46, i64 1
  %48 = load ptr, ptr @the_repository, align 8, !tbaa !4
  %49 = getelementptr inbounds nuw %struct.repository, ptr %48, i32 0, i32 3
  %50 = load ptr, ptr %49, align 8, !tbaa !13
  %51 = getelementptr inbounds nuw %struct.parsed_object_pool, ptr %50, i32 0, i32 11
  %52 = load i32, ptr %51, align 4, !tbaa !54
  %53 = load i32, ptr %4, align 4, !tbaa !11
  %54 = sub nsw i32 %52, %53
  %55 = sub nsw i32 %54, 1
  %56 = sext i32 %55 to i64
  call void @move_array(ptr noundef %38, ptr noundef %47, i64 noundef %56, i64 noundef 8)
  br label %57

57:                                               ; preds = %30, %12
  %58 = load ptr, ptr @the_repository, align 8, !tbaa !4
  %59 = getelementptr inbounds nuw %struct.repository, ptr %58, i32 0, i32 3
  %60 = load ptr, ptr %59, align 8, !tbaa !13
  %61 = getelementptr inbounds nuw %struct.parsed_object_pool, ptr %60, i32 0, i32 11
  %62 = load i32, ptr %61, align 4, !tbaa !54
  %63 = add nsw i32 %62, -1
  store i32 %63, ptr %61, align 4, !tbaa !54
  store i32 0, ptr %2, align 4
  store i32 1, ptr %5, align 4
  br label %64

64:                                               ; preds = %57, %11
  call void @llvm.lifetime.end.p0(i64 4, ptr %4) #12
  %65 = load i32, ptr %2, align 4
  ret i32 %65
}