; Function Attrs: nounwind uwtable
define dso_local range(i32 -1, 1) i32 @unregister_shallow(ptr noundef %0) local_unnamed_addr #0 {
  %2 = load ptr, ptr @the_repository, align 8, !tbaa !45
  %3 = tail call i32 @commit_graft_pos(ptr noundef %2, ptr noundef %0) #15
  %4 = icmp slt i32 %3, 0
  br i1 %4, label %36, label %5

5:                                                ; preds = %1
  %6 = load ptr, ptr @the_repository, align 8, !tbaa !45
  %7 = getelementptr inbounds nuw i8, ptr %6, i64 24
  %8 = load ptr, ptr %7, align 8, !tbaa !4
  %9 = getelementptr inbounds nuw i8, ptr %8, i64 64
  %10 = load ptr, ptr %9, align 8, !tbaa !46
  %11 = zext nneg i32 %3 to i64
  %12 = getelementptr inbounds nuw ptr, ptr %10, i64 %11
  %13 = load ptr, ptr %12, align 8, !tbaa !47
  tail call void @free(ptr noundef %13) #15
  %14 = add nuw nsw i32 %3, 1
  %15 = load ptr, ptr @the_repository, align 8, !tbaa !45
  %16 = getelementptr inbounds nuw i8, ptr %15, i64 24
  %17 = load ptr, ptr %16, align 8, !tbaa !4
  %18 = getelementptr inbounds nuw i8, ptr %17, i64 76
  %19 = load i32, ptr %18, align 4, !tbaa !49
  %20 = icmp slt i32 %14, %19
  br i1 %20, label %21, label %move_array.exit

21:                                               ; preds = %5
  %22 = getelementptr inbounds nuw i8, ptr %17, i64 64
  %23 = load ptr, ptr %22, align 8, !tbaa !46
  %24 = getelementptr inbounds nuw ptr, ptr %23, i64 %11
  %25 = getelementptr inbounds nuw i8, ptr %24, i64 8
  %26 = xor i32 %3, -1
  %27 = add nsw i32 %19, %26
  %28 = sext i32 %27 to i64
  %.not.i = icmp eq i32 %27, 0
  br i1 %.not.i, label %move_array.exit, label %29

29:                                               ; preds = %21
  %mul.ov.i.i = icmp slt i32 %27, 0
  br i1 %mul.ov.i.i, label %30, label %st_mult.exit.i

30:                                               ; preds = %29
  tail call void (ptr, ...) @die(ptr noundef nonnull @.str.19, i64 noundef 8, i64 noundef range(i64 -2147483646, 2147483647) %28) #14
  unreachable

st_mult.exit.i:                                   ; preds = %29
  %31 = shl nuw nsw i64 %28, 3
  tail call void @llvm.memmove.p0.p0.i64(ptr align 1 %24, ptr nonnull readonly align 1 %25, i64 %31, i1 false)
  %.pre = load ptr, ptr @the_repository, align 8, !tbaa !45
  %.phi.trans.insert = getelementptr inbounds nuw i8, ptr %.pre, i64 24
  %.pre9 = load ptr, ptr %.phi.trans.insert, align 8, !tbaa !4
  %.phi.trans.insert10 = getelementptr inbounds nuw i8, ptr %.pre9, i64 76
  %.pre11 = load i32, ptr %.phi.trans.insert10, align 4, !tbaa !49
  br label %move_array.exit

move_array.exit:                                  ; preds = %st_mult.exit.i, %21, %5
  %32 = phi i32 [ %.pre11, %st_mult.exit.i ], [ %19, %21 ], [ %19, %5 ]
  %33 = phi ptr [ %.pre9, %st_mult.exit.i ], [ %17, %21 ], [ %17, %5 ]
  %34 = getelementptr inbounds nuw i8, ptr %33, i64 76
  %35 = add nsw i32 %32, -1
  store i32 %35, ptr %34, align 4, !tbaa !49
  br label %36

36:                                               ; preds = %1, %move_array.exit
  %.0 = phi i32 [ 0, %move_array.exit ], [ -1, %1 ]
  ret i32 %.0
}